; Function Attrs: mustprogress nounwind sspstrong willreturn uwtable
define void @FLAC__metadata_object_cuesheet_track_delete(ptr noundef captures(none) %0) local_unnamed_addr #18 {
  %2 = getelementptr inbounds nuw i8, ptr %0, i64 24
  %3 = load ptr, ptr %2, align 8, !tbaa !21
  %.not.i = icmp eq ptr %3, null
  br i1 %.not.i, label %FLAC__metadata_object_cuesheet_track_delete_data.exit, label %4

4:                                                ; preds = %1
  tail call void @free(ptr noundef nonnull %3) #31
  br label %FLAC__metadata_object_cuesheet_track_delete_data.exit

FLAC__metadata_object_cuesheet_track_delete_data.exit: ; preds = %1, %4
  tail call void @free(ptr noundef nonnull %0) #31
  ret void
}